
/home/zhuzemu/homework/RISC-V-CPU-simulator/test/my_tests/workloads/reverse.riscv:     file format elf32-littleriscv


Disassembly of section .text:

00010000 <_start>:
   10000:	00010137          	lui	sp,0x10
   10004:	00000097          	auipc	ra,0x0
   10008:	00c080e7          	jalr	12(ra) # 10010 <main>
   1000c:	00100073          	ebreak

00010010 <main>:
   10010:	fc010113          	addi	sp,sp,-64 # ffc0 <_start-0x40>
   10014:	02812e23          	sw	s0,60(sp)
   10018:	04010413          	addi	s0,sp,64
   1001c:	000107b7          	lui	a5,0x10
   10020:	12878793          	addi	a5,a5,296 # 10128 <main+0x118>
   10024:	0007a583          	lw	a1,0(a5)
   10028:	0047a603          	lw	a2,4(a5)
   1002c:	0087a683          	lw	a3,8(a5)
   10030:	00c7a703          	lw	a4,12(a5)
   10034:	0107a783          	lw	a5,16(a5)
   10038:	fcb42623          	sw	a1,-52(s0)
   1003c:	fcc42823          	sw	a2,-48(s0)
   10040:	fcd42a23          	sw	a3,-44(s0)
   10044:	fce42c23          	sw	a4,-40(s0)
   10048:	fcf42e23          	sw	a5,-36(s0)
   1004c:	00500793          	li	a5,5
   10050:	fef42423          	sw	a5,-24(s0)
   10054:	fe042623          	sw	zero,-20(s0)
   10058:	0800006f          	j	100d8 <main+0xc8>
   1005c:	fec42783          	lw	a5,-20(s0)
   10060:	00279793          	slli	a5,a5,0x2
   10064:	ff078793          	addi	a5,a5,-16
   10068:	008787b3          	add	a5,a5,s0
   1006c:	fdc7a783          	lw	a5,-36(a5)
   10070:	fef42023          	sw	a5,-32(s0)
   10074:	fe842783          	lw	a5,-24(s0)
   10078:	fff78713          	addi	a4,a5,-1
   1007c:	fec42783          	lw	a5,-20(s0)
   10080:	40f707b3          	sub	a5,a4,a5
   10084:	00279793          	slli	a5,a5,0x2
   10088:	ff078793          	addi	a5,a5,-16
   1008c:	008787b3          	add	a5,a5,s0
   10090:	fdc7a703          	lw	a4,-36(a5)
   10094:	fec42783          	lw	a5,-20(s0)
   10098:	00279793          	slli	a5,a5,0x2
   1009c:	ff078793          	addi	a5,a5,-16
   100a0:	008787b3          	add	a5,a5,s0
   100a4:	fce7ae23          	sw	a4,-36(a5)
   100a8:	fe842783          	lw	a5,-24(s0)
   100ac:	fff78713          	addi	a4,a5,-1
   100b0:	fec42783          	lw	a5,-20(s0)
   100b4:	40f707b3          	sub	a5,a4,a5
   100b8:	00279793          	slli	a5,a5,0x2
   100bc:	ff078793          	addi	a5,a5,-16
   100c0:	008787b3          	add	a5,a5,s0
   100c4:	fe042703          	lw	a4,-32(s0)
   100c8:	fce7ae23          	sw	a4,-36(a5)
   100cc:	fec42783          	lw	a5,-20(s0)
   100d0:	00178793          	addi	a5,a5,1
   100d4:	fef42623          	sw	a5,-20(s0)
   100d8:	fe842783          	lw	a5,-24(s0)
   100dc:	01f7d713          	srli	a4,a5,0x1f
   100e0:	00f707b3          	add	a5,a4,a5
   100e4:	4017d793          	srai	a5,a5,0x1
   100e8:	00078713          	mv	a4,a5
   100ec:	fec42783          	lw	a5,-20(s0)
   100f0:	f6e7c6e3          	blt	a5,a4,1005c <main+0x4c>
   100f4:	fcc42783          	lw	a5,-52(s0)
   100f8:	fef42223          	sw	a5,-28(s0)
   100fc:	fe442783          	lw	a5,-28(s0)
   10100:	00078513          	mv	a0,a5
   10104:	00000013          	nop
   10108:	00000013          	nop
   1010c:	00000013          	nop
   10110:	00100073          	ebreak
   10114:	00000793          	li	a5,0
   10118:	00078513          	mv	a0,a5
   1011c:	03c12403          	lw	s0,60(sp)
   10120:	04010113          	addi	sp,sp,64
   10124:	00008067          	ret
